
hello：     文件格式 elf32-tradlittlemips
hello


Disassembly of section .text:

80010000 <hello>:
hello():
80010000:	27bdffe8 	addiu	sp,sp,-24
80010004:	afbf0014 	sw	ra,20(sp)
80010008:	afbe0010 	sw	s8,16(sp)
8001000c:	03a0f025 	move	s8,sp
80010010:	afc40018 	sw	a0,24(s8)
80010014:	afc5001c 	sw	a1,28(s8)
80010018:	afc60020 	sw	a2,32(s8)
8001001c:	afc70024 	sw	a3,36(s8)
80010020:	3c028001 	lui	v0,0x8001
80010024:	24440350 	addiu	a0,v0,848
80010028:	0c004067 	jal	8001019c <print_str>
8001002c:	00000000 	nop
80010030:	8fc20018 	lw	v0,24(s8)
80010034:	00000000 	nop
80010038:	00402025 	move	a0,v0
8001003c:	0c00408c 	jal	80010230 <print_num>
80010040:	00000000 	nop
80010044:	3c028001 	lui	v0,0x8001
80010048:	24440360 	addiu	a0,v0,864
8001004c:	0c004067 	jal	8001019c <print_str>
80010050:	00000000 	nop
80010054:	8fc2001c 	lw	v0,28(s8)
80010058:	00000000 	nop
8001005c:	00402025 	move	a0,v0
80010060:	0c00408c 	jal	80010230 <print_num>
80010064:	00000000 	nop
80010068:	3c028001 	lui	v0,0x8001
8001006c:	24440360 	addiu	a0,v0,864
80010070:	0c004067 	jal	8001019c <print_str>
80010074:	00000000 	nop
80010078:	8fc20020 	lw	v0,32(s8)
8001007c:	00000000 	nop
80010080:	00402025 	move	a0,v0
80010084:	0c00408c 	jal	80010230 <print_num>
80010088:	00000000 	nop
8001008c:	3c028001 	lui	v0,0x8001
80010090:	24440360 	addiu	a0,v0,864
80010094:	0c004067 	jal	8001019c <print_str>
80010098:	00000000 	nop
8001009c:	8fc20024 	lw	v0,36(s8)
800100a0:	00000000 	nop
800100a4:	00402025 	move	a0,v0
800100a8:	0c00408c 	jal	80010230 <print_num>
800100ac:	00000000 	nop
800100b0:	3c028001 	lui	v0,0x8001
800100b4:	24440360 	addiu	a0,v0,864
800100b8:	0c004067 	jal	8001019c <print_str>
800100bc:	00000000 	nop
800100c0:	8fc20028 	lw	v0,40(s8)
800100c4:	00000000 	nop
800100c8:	00402025 	move	a0,v0
800100cc:	0c00408c 	jal	80010230 <print_num>
800100d0:	00000000 	nop
800100d4:	3c028001 	lui	v0,0x8001
800100d8:	24440360 	addiu	a0,v0,864
800100dc:	0c004067 	jal	8001019c <print_str>
800100e0:	00000000 	nop
800100e4:	8fc2002c 	lw	v0,44(s8)
800100e8:	00000000 	nop
800100ec:	00402025 	move	a0,v0
800100f0:	0c00408c 	jal	80010230 <print_num>
800100f4:	00000000 	nop
800100f8:	3c028001 	lui	v0,0x8001
800100fc:	24440360 	addiu	a0,v0,864
80010100:	0c004067 	jal	8001019c <print_str>
80010104:	00000000 	nop
80010108:	0c00405b 	jal	8001016c <halt>
8001010c:	00000000 	nop
80010110:	00000000 	nop
80010114:	03c0e825 	move	sp,s8
80010118:	8fbf0014 	lw	ra,20(sp)
8001011c:	8fbe0010 	lw	s8,16(sp)
80010120:	27bd0018 	addiu	sp,sp,24
80010124:	03e00008 	jr	ra
80010128:	00000000 	nop
8001012c:	00000000 	nop

80010130 <printcharc>:
printcharc():
80010130:	27bdfff8 	addiu	sp,sp,-8
80010134:	afbe0004 	sw	s8,4(sp)
80010138:	03a0f025 	move	s8,sp
8001013c:	00801025 	move	v0,a0
80010140:	a3c20008 	sb	v0,8(s8)
80010144:	3c02b000 	lui	v0,0xb000
80010148:	93c30008 	lbu	v1,8(s8)
8001014c:	00000000 	nop
80010150:	a0430000 	sb	v1,0(v0)
80010154:	00000000 	nop
80010158:	03c0e825 	move	sp,s8
8001015c:	8fbe0004 	lw	s8,4(sp)
80010160:	27bd0008 	addiu	sp,sp,8
80010164:	03e00008 	jr	ra
80010168:	00000000 	nop

8001016c <halt>:
halt():
8001016c:	27bdfff8 	addiu	sp,sp,-8
80010170:	afbe0004 	sw	s8,4(sp)
80010174:	03a0f025 	move	s8,sp
80010178:	3c02b000 	lui	v0,0xb000
8001017c:	34420010 	ori	v0,v0,0x10
80010180:	a0400000 	sb	zero,0(v0)
80010184:	00000000 	nop
80010188:	03c0e825 	move	sp,s8
8001018c:	8fbe0004 	lw	s8,4(sp)
80010190:	27bd0008 	addiu	sp,sp,8
80010194:	03e00008 	jr	ra
80010198:	00000000 	nop

8001019c <print_str>:
print_str():
8001019c:	27bdffe0 	addiu	sp,sp,-32
800101a0:	afbf001c 	sw	ra,28(sp)
800101a4:	afbe0018 	sw	s8,24(sp)
800101a8:	03a0f025 	move	s8,sp
800101ac:	afc40020 	sw	a0,32(s8)
800101b0:	afc00010 	sw	zero,16(s8)
800101b4:	1000000e 	b	800101f0 <print_str+0x54>
800101b8:	00000000 	nop
800101bc:	8fc20010 	lw	v0,16(s8)
800101c0:	8fc30020 	lw	v1,32(s8)
800101c4:	00000000 	nop
800101c8:	00621021 	addu	v0,v1,v0
800101cc:	80420000 	lb	v0,0(v0)
800101d0:	00000000 	nop
800101d4:	00402025 	move	a0,v0
800101d8:	0c00404c 	jal	80010130 <printcharc>
800101dc:	00000000 	nop
800101e0:	8fc20010 	lw	v0,16(s8)
800101e4:	00000000 	nop
800101e8:	24420001 	addiu	v0,v0,1
800101ec:	afc20010 	sw	v0,16(s8)
800101f0:	8fc20010 	lw	v0,16(s8)
800101f4:	8fc30020 	lw	v1,32(s8)
800101f8:	00000000 	nop
800101fc:	00621021 	addu	v0,v1,v0
80010200:	80420000 	lb	v0,0(v0)
80010204:	00000000 	nop
80010208:	1440ffec 	bnez	v0,800101bc <print_str+0x20>
8001020c:	00000000 	nop
	...
80010218:	03c0e825 	move	sp,s8
8001021c:	8fbf001c 	lw	ra,28(sp)
80010220:	8fbe0018 	lw	s8,24(sp)
80010224:	27bd0020 	addiu	sp,sp,32
80010228:	03e00008 	jr	ra
8001022c:	00000000 	nop

80010230 <print_num>:
print_num():
80010230:	27bdffe0 	addiu	sp,sp,-32
80010234:	afbf001c 	sw	ra,28(sp)
80010238:	afbe0018 	sw	s8,24(sp)
8001023c:	03a0f025 	move	s8,sp
80010240:	afc40020 	sw	a0,32(s8)
80010244:	8fc30020 	lw	v1,32(s8)
80010248:	2402000a 	li	v0,10
8001024c:	0062001b 	divu	zero,v1,v0
80010250:	14400002 	bnez	v0,8001025c <print_num+0x2c>
80010254:	00000000 	nop
80010258:	0007000d 	break	0x7
8001025c:	00001010 	mfhi	v0
80010260:	304200ff 	andi	v0,v0,0xff
80010264:	24420030 	addiu	v0,v0,48
80010268:	304200ff 	andi	v0,v0,0xff
8001026c:	a3c20010 	sb	v0,16(s8)
80010270:	8fc30020 	lw	v1,32(s8)
80010274:	2402000a 	li	v0,10
80010278:	0062001b 	divu	zero,v1,v0
8001027c:	14400002 	bnez	v0,80010288 <print_num+0x58>
80010280:	00000000 	nop
80010284:	0007000d 	break	0x7
80010288:	00001010 	mfhi	v0
8001028c:	00001012 	mflo	v0
80010290:	afc20020 	sw	v0,32(s8)
80010294:	8fc20020 	lw	v0,32(s8)
80010298:	00000000 	nop
8001029c:	10400004 	beqz	v0,800102b0 <print_num+0x80>
800102a0:	00000000 	nop
800102a4:	8fc40020 	lw	a0,32(s8)
800102a8:	0c00408c 	jal	80010230 <print_num>
800102ac:	00000000 	nop
800102b0:	83c20010 	lb	v0,16(s8)
800102b4:	00000000 	nop
800102b8:	00402025 	move	a0,v0
800102bc:	0c00404c 	jal	80010130 <printcharc>
800102c0:	00000000 	nop
800102c4:	00000000 	nop
800102c8:	03c0e825 	move	sp,s8
800102cc:	8fbf001c 	lw	ra,28(sp)
800102d0:	8fbe0018 	lw	s8,24(sp)
800102d4:	27bd0020 	addiu	sp,sp,32
800102d8:	03e00008 	jr	ra
800102dc:	00000000 	nop

800102e0 <_start_mips>:
_start_mips():
800102e0:	40806000 	mtc0	zero,c0_sr
800102e4:	3c1d8400 	lui	sp,0x8400
800102e8:	24040000 	li	a0,0
800102ec:	24050001 	li	a1,1
800102f0:	24060002 	li	a2,2
800102f4:	24070003 	li	a3,3
800102f8:	27bdffe8 	addiu	sp,sp,-24
800102fc:	3c098001 	lui	t1,0x8001
80010300:	8d290370 	lw	t1,880(t1)
80010304:	240a0005 	li	t2,5
80010308:	afa90010 	sw	t1,16(sp)
8001030c:	afaa0014 	sw	t2,20(sp)
80010310:	08004000 	j	80010000 <hello>
80010314:	00000000 	nop
	...
